target datalayout = "e-m:e-p270:32:32-p271:32:32-p272:64:64-i64:64-i128:128-f80:128-n8:16:32:64-S128"
target triple = "x86_64-pc-linux-gnu"

%struct.revision_sources = type { i32, i32, i32, ptr }

; Function Attrs: nounwind uwtable
define dso_local void @init_revision_sources_with_stride(ptr noundef %0, i32 noundef %1) #0 {
  %3 = alloca ptr, align 8
  %4 = alloca i32, align 4
  %5 = alloca i32, align 4
  store ptr %0, ptr %3, align 8, !tbaa !4
  store i32 %1, ptr %4, align 4, !tbaa !9
  call void @llvm.lifetime.start.p0(i64 4, ptr %5) #12
  %6 = load i32, ptr %4, align 4, !tbaa !9
  %7 = icmp ne i32 %6, 0
  br i1 %7, label %9, label %8

8:                                                ; preds = %2
  store i32 1, ptr %4, align 4, !tbaa !9
  br label %9

9:                                                ; preds = %8, %2
  %10 = load i32, ptr %4, align 4, !tbaa !9
  %11 = load ptr, ptr %3, align 8, !tbaa !4
  %12 = getelementptr inbounds nuw %struct.revision_sources, ptr %11, i32 0, i32 1
  store i32 %10, ptr %12, align 4, !tbaa !11
  %13 = load i32, ptr %4, align 4, !tbaa !9
  %14 = zext i32 %13 to i64
  %15 = mul i64 8, %14
  %16 = trunc i64 %15 to i32
  store i32 %16, ptr %5, align 4, !tbaa !9
  %17 = load i32, ptr %5, align 4, !tbaa !9
  %18 = udiv i32 524256, %17
  %19 = load ptr, ptr %3, align 8, !tbaa !4
  %20 = getelementptr inbounds nuw %struct.revision_sources, ptr %19, i32 0, i32 0
  store i32 %18, ptr %20, align 8, !tbaa !14
  %21 = load ptr, ptr %3, align 8, !tbaa !4
  %22 = getelementptr inbounds nuw %struct.revision_sources, ptr %21, i32 0, i32 2
  store i32 0, ptr %22, align 8, !tbaa !15
  %23 = load ptr, ptr %3, align 8, !tbaa !4
  %24 = getelementptr inbounds nuw %struct.revision_sources, ptr %23, i32 0, i32 3
  store ptr null, ptr %24, align 8, !tbaa !16
  call void @llvm.lifetime.end.p0(i64 4, ptr %5) #12
  ret void
}

; Function Attrs: nounwind uwtable
define dso_local void @init_revision_sources(ptr noundef %0) #0 {
  %2 = alloca ptr, align 8
  store ptr %0, ptr %2, align 8, !tbaa !4
  %3 = load ptr, ptr %2, align 8, !tbaa !4
  call void @init_revision_sources_with_stride(ptr noundef %3, i32 noundef 1)
  ret void
}